target datalayout = "e-m:e-p270:32:32-p271:32:32-p272:64:64-i64:64-i128:128-f80:128-n8:16:32:64-S128"
target triple = "x86_64-unknown-linux-gnu"

%"struct.sat::cut_simplifier::bin_rel" = type { i32, i32, i32 }

; Function Attrs: mustprogress nounwind uwtable
define hidden noundef i64 @_ZN3sat14cut_simplifier12op2dont_careEjjRKNS0_7bin_relE(ptr noundef nonnull align 8 dereferenceable(600) %this, i32 noundef %i, i32 noundef %j, ptr noundef nonnull align 4 dereferenceable(12) %p) #4 align 2 {
entry:
  %retval = alloca i64, align 8
  %this.addr = alloca ptr, align 8
  %i.addr = alloca i32, align 4
  %j.addr = alloca i32, align 4
  %p.addr = alloca ptr, align 8
  %i_is_0 = alloca i8, align 1
  %j_is_0 = alloca i8, align 1
  %first = alloca i64, align 8
  %inc = alloca i64, align 8
  %r = alloca i64, align 8
  store ptr %this, ptr %this.addr, align 8
  store i32 %i, ptr %i.addr, align 4
  store i32 %j, ptr %j.addr, align 4
  store ptr %p, ptr %p.addr, align 8
  %0 = load ptr, ptr %p.addr, align 8
  %op = getelementptr inbounds %"struct.sat::cut_simplifier::bin_rel", ptr %0, i32 0, i32 2
  %1 = load i32, ptr %op, align 4
  %cmp = icmp eq i32 %1, 4
  br i1 %cmp, label %if.then, label %if.end

if.then:                                          ; preds = %entry
  store i64 0, ptr %retval, align 8
  br label %return

if.end:                                           ; preds = %entry
  %2 = load ptr, ptr %p.addr, align 8
  %op2 = getelementptr inbounds %"struct.sat::cut_simplifier::bin_rel", ptr %2, i32 0, i32 2
  %3 = load i32, ptr %op2, align 4
  %cmp3 = icmp eq i32 %3, 2
  br i1 %cmp3, label %lor.end, label %lor.rhs

lor.rhs:                                          ; preds = %if.end
  %4 = load ptr, ptr %p.addr, align 8
  %op4 = getelementptr inbounds %"struct.sat::cut_simplifier::bin_rel", ptr %4, i32 0, i32 2
  %5 = load i32, ptr %op4, align 4
  %cmp5 = icmp eq i32 %5, 3
  br label %lor.end

lor.end:                                          ; preds = %lor.rhs, %if.end
  %6 = phi i1 [ true, %if.end ], [ %cmp5, %lor.rhs ]
  %frombool = zext i1 %6 to i8
  store i8 %frombool, ptr %i_is_0, align 1
  %7 = load ptr, ptr %p.addr, align 8
  %op6 = getelementptr inbounds %"struct.sat::cut_simplifier::bin_rel", ptr %7, i32 0, i32 2
  %8 = load i32, ptr %op6, align 4
  %cmp7 = icmp eq i32 %8, 1
  br i1 %cmp7, label %lor.end11, label %lor.rhs8

lor.rhs8:                                         ; preds = %lor.end
  %9 = load ptr, ptr %p.addr, align 8
  %op9 = getelementptr inbounds %"struct.sat::cut_simplifier::bin_rel", ptr %9, i32 0, i32 2
  %10 = load i32, ptr %op9, align 4
  %cmp10 = icmp eq i32 %10, 3
  br label %lor.end11

lor.end11:                                        ; preds = %lor.rhs8, %lor.end
  %11 = phi i1 [ true, %lor.end ], [ %cmp10, %lor.rhs8 ]
  %frombool12 = zext i1 %11 to i8
  store i8 %frombool12, ptr %j_is_0, align 1
  %12 = load i8, ptr %i_is_0, align 1
  %tobool = trunc i8 %12 to i1
  br i1 %tobool, label %cond.true, label %cond.false

cond.true:                                        ; preds = %lor.end11
  br label %cond.end

cond.false:                                       ; preds = %lor.end11
  %13 = load i32, ptr %i.addr, align 4
  %shl = shl i32 1, %13
  br label %cond.end

cond.end:                                         ; preds = %cond.false, %cond.true
  %cond = phi i32 [ 0, %cond.true ], [ %shl, %cond.false ]
  %14 = load i8, ptr %j_is_0, align 1
  %tobool13 = trunc i8 %14 to i1
  br i1 %tobool13, label %cond.true14, label %cond.false15

cond.true14:                                      ; preds = %cond.end
  br label %cond.end17

cond.false15:                                     ; preds = %cond.end
  %15 = load i32, ptr %j.addr, align 4
  %shl16 = shl i32 1, %15
  br label %cond.end17

cond.end17:                                       ; preds = %cond.false15, %cond.true14
  %cond18 = phi i32 [ 0, %cond.true14 ], [ %shl16, %cond.false15 ]
  %add = add nsw i32 %cond, %cond18
  %conv = sext i32 %add to i64
  store i64 %conv, ptr %first, align 8
  %16 = load i32, ptr %j.addr, align 4
  %add19 = add i32 %16, 1
  %sh_prom = zext i32 %add19 to i64
  %shl20 = shl i64 1, %sh_prom
  store i64 %shl20, ptr %inc, align 8
  %17 = load i64, ptr %first, align 8
  %shl21 = shl i64 1, %17
  store i64 %shl21, ptr %r, align 8
  br label %while.cond

while.cond:                                       ; preds = %while.body, %cond.end17
  %18 = load i64, ptr %inc, align 8
  %cmp22 = icmp ult i64 %18, 64
  br i1 %cmp22, label %while.body, label %while.end

while.body:                                       ; preds = %while.cond
  %19 = load i64, ptr %r, align 8
  %20 = load i64, ptr %inc, align 8
  %shl23 = shl i64 %19, %20
  %21 = load i64, ptr %r, align 8
  %or = or i64 %21, %shl23
  store i64 %or, ptr %r, align 8
  %22 = load i64, ptr %inc, align 8
  %mul = mul i64 %22, 2
  store i64 %mul, ptr %inc, align 8
  br label %while.cond, !llvm.loop !30

while.end:                                        ; preds = %while.cond
  %23 = load i64, ptr %r, align 8
  store i64 %23, ptr %retval, align 8
  br label %return

return:                                           ; preds = %while.end, %if.then
  %24 = load i64, ptr %retval, align 8
  ret i64 %24
}