; Function Attrs: mustprogress nofree norecurse nosync nounwind willreturn memory(argmem: read) uwtable
define hidden noundef i64 @_ZN3sat14cut_simplifier12op2dont_careEjjRKNS0_7bin_relE(ptr nocapture noundef nonnull readnone align 8 dereferenceable(600) %this, i32 noundef %i, i32 noundef %j, ptr nocapture noundef nonnull readonly align 4 dereferenceable(12) %p) local_unnamed_addr #10 align 2 {
entry:
  %op = getelementptr inbounds i8, ptr %p, i64 8
  %0 = load i32, ptr %op, align 4
  switch i32 %0, label %lor.end [
    i32 4, label %return
    i32 2, label %1
    i32 3, label %1
  ]

lor.end:                                          ; preds = %entry
  %cmp7 = icmp eq i32 %0, 1
  %shl = shl nuw i32 1, %i
  br label %2

1:                                                ; preds = %entry, %entry
  %cmp1013 = icmp eq i32 %0, 3
  br label %2

2:                                                ; preds = %lor.end, %1
  %spec.select16 = phi i1 [ %cmp1013, %1 ], [ %cmp7, %lor.end ]
  %3 = phi i32 [ 0, %1 ], [ %shl, %lor.end ]
  %shl16 = shl nuw i32 1, %j
  %cond18 = select i1 %spec.select16, i32 0, i32 %shl16
  %add = add nsw i32 %3, %cond18
  %add19 = add i32 %j, 1
  %conv11 = zext nneg i32 %add to i64
  %shl21 = shl nuw i64 1, %conv11
  %cmp2218 = icmp ult i32 %add19, 6
  br i1 %cmp2218, label %while.body.preheader, label %return

while.body.preheader:                             ; preds = %2
  %sh_prom = zext nneg i32 %add19 to i64
  %shl20 = shl nuw nsw i64 1, %sh_prom
  br label %while.body

while.body:                                       ; preds = %while.body.preheader, %while.body
  %r.020 = phi i64 [ %or, %while.body ], [ %shl21, %while.body.preheader ]
  %inc.019 = phi i64 [ %mul, %while.body ], [ %shl20, %while.body.preheader ]
  %shl23 = shl i64 %r.020, %inc.019
  %or = or i64 %shl23, %r.020
  %mul = shl nuw nsw i64 %inc.019, 1
  %cmp22 = icmp ult i64 %inc.019, 32
  br i1 %cmp22, label %while.body, label %return, !llvm.loop !59

return:                                           ; preds = %while.body, %2, %entry
  %retval.0 = phi i64 [ 0, %entry ], [ %shl21, %2 ], [ %or, %while.body ]
  ret i64 %retval.0
}